; Function Attrs: nounwind sspstrong uwtable
define internal noundef i64 @rb_thread_sleep_that_takes_VALUE_as_sole_argument(i64 noundef %0) #1 {
  %2 = and i64 %0, 1
  %.not.i = icmp eq i64 %2, 0
  br i1 %.not.i, label %5, label %3

3:                                                ; preds = %1
  %4 = tail call i64 @rb_fix2int(i64 noundef %0) #27
  br label %rb_num2int_inline.exit

5:                                                ; preds = %1
  %6 = tail call i64 @rb_num2int(i64 noundef %0) #27
  br label %rb_num2int_inline.exit

rb_num2int_inline.exit:                           ; preds = %3, %5
  %.0.i = phi i64 [ %4, %3 ], [ %6, %5 ]
  %7 = trunc i64 %.0.i to i32
  tail call void @rb_thread_sleep(i32 noundef %7) #27
  ret i64 36
}